; Function Attrs: nounwind uwtable
define ptr @l_Lean_Elab_Command_expandMacroArg___lambda__2(ptr noundef %0, ptr noundef %1, ptr noundef %2, ptr noundef %3) #1 {
  %5 = getelementptr inbounds nuw i8, ptr %0, i64 8
  %6 = getelementptr inbounds nuw i8, ptr %0, i64 16
  %7 = load ptr, ptr %6, align 8, !tbaa !4
  %8 = ptrtoint ptr %7 to i64
  %9 = and i64 %8, 1
  %.not = icmp eq i64 %9, 0
  br i1 %.not, label %10, label %lean_inc.exit20

10:                                               ; preds = %4
  %.val.i = load i32, ptr %7, align 4, !tbaa !8
  %11 = icmp sgt i32 %.val.i, 0
  br i1 %11, label %12, label %14, !prof !11

12:                                               ; preds = %10
  %13 = add nuw i32 %.val.i, 1
  store i32 %13, ptr %7, align 4, !tbaa !8
  br label %lean_inc.exit20

14:                                               ; preds = %10
  %.not.i23 = icmp eq i32 %.val.i, 0
  br i1 %.not.i23, label %lean_inc.exit20, label %15

15:                                               ; preds = %14
  tail call void @lean_inc_ref_cold(ptr noundef nonnull %7) #4
  br label %lean_inc.exit20

lean_inc.exit20:                                  ; preds = %15, %14, %12, %4
  %16 = load ptr, ptr %5, align 8, !tbaa !4
  %17 = ptrtoint ptr %16 to i64
  %18 = and i64 %17, 1
  %.not33 = icmp eq i64 %18, 0
  br i1 %.not33, label %19, label %lean_inc.exit19

19:                                               ; preds = %lean_inc.exit20
  %.val.i24 = load i32, ptr %16, align 4, !tbaa !8
  %20 = icmp sgt i32 %.val.i24, 0
  br i1 %20, label %21, label %23, !prof !11

21:                                               ; preds = %19
  %22 = add nuw i32 %.val.i24, 1
  store i32 %22, ptr %16, align 4, !tbaa !8
  br label %lean_inc.exit19

23:                                               ; preds = %19
  %.not.i25 = icmp eq i32 %.val.i24, 0
  br i1 %.not.i25, label %lean_inc.exit19, label %24

24:                                               ; preds = %23
  tail call void @lean_inc_ref_cold(ptr noundef nonnull %16) #4
  br label %lean_inc.exit19

lean_inc.exit19:                                  ; preds = %24, %23, %21, %lean_inc.exit20
  %25 = ptrtoint ptr %0 to i64
  %26 = and i64 %25, 1
  %.not34 = icmp eq i64 %26, 0
  br i1 %.not34, label %27, label %lean_dec.exit17

27:                                               ; preds = %lean_inc.exit19
  %28 = load i32, ptr %0, align 4, !tbaa !8
  %29 = icmp sgt i32 %28, 1
  br i1 %29, label %30, label %32, !prof !11

30:                                               ; preds = %27
  %31 = add nsw i32 %28, -1
  store i32 %31, ptr %0, align 4, !tbaa !8
  br label %lean_dec.exit17

32:                                               ; preds = %27
  %.not.i = icmp eq i32 %28, 0
  br i1 %.not.i, label %lean_dec.exit17, label %33

33:                                               ; preds = %32
  tail call void @lean_dec_ref_cold(ptr noundef nonnull %0) #4
  br label %lean_dec.exit17

lean_dec.exit17:                                  ; preds = %33, %32, %30, %lean_inc.exit19
  %34 = getelementptr inbounds nuw i8, ptr %7, i64 8
  %35 = load ptr, ptr %34, align 8, !tbaa !4
  %36 = ptrtoint ptr %35 to i64
  %37 = and i64 %36, 1
  %.not35 = icmp eq i64 %37, 0
  br i1 %.not35, label %38, label %lean_inc.exit18

38:                                               ; preds = %lean_dec.exit17
  %.val.i27 = load i32, ptr %35, align 4, !tbaa !8
  %39 = icmp sgt i32 %.val.i27, 0
  br i1 %39, label %40, label %42, !prof !11

40:                                               ; preds = %38
  %41 = add nuw i32 %.val.i27, 1
  store i32 %41, ptr %35, align 4, !tbaa !8
  br label %lean_inc.exit18

42:                                               ; preds = %38
  %.not.i28 = icmp eq i32 %.val.i27, 0
  br i1 %.not.i28, label %lean_inc.exit18, label %43

43:                                               ; preds = %42
  tail call void @lean_inc_ref_cold(ptr noundef nonnull %35) #4
  br label %lean_inc.exit18

lean_inc.exit18:                                  ; preds = %43, %42, %40, %lean_dec.exit17
  %44 = getelementptr inbounds nuw i8, ptr %7, i64 16
  %45 = load ptr, ptr %44, align 8, !tbaa !4
  %46 = ptrtoint ptr %45 to i64
  %47 = and i64 %46, 1
  %.not36 = icmp eq i64 %47, 0
  br i1 %.not36, label %48, label %lean_inc.exit

48:                                               ; preds = %lean_inc.exit18
  %.val.i30 = load i32, ptr %45, align 4, !tbaa !8
  %49 = icmp sgt i32 %.val.i30, 0
  br i1 %49, label %50, label %52, !prof !11

50:                                               ; preds = %48
  %51 = add nuw i32 %.val.i30, 1
  store i32 %51, ptr %45, align 4, !tbaa !8
  br label %lean_inc.exit

52:                                               ; preds = %48
  %.not.i31 = icmp eq i32 %.val.i30, 0
  br i1 %.not.i31, label %lean_inc.exit, label %53

53:                                               ; preds = %52
  tail call void @lean_inc_ref_cold(ptr noundef nonnull %45) #4
  br label %lean_inc.exit

lean_inc.exit:                                    ; preds = %53, %52, %50, %lean_inc.exit18
  br i1 %.not, label %54, label %lean_dec.exit

54:                                               ; preds = %lean_inc.exit
  %55 = load i32, ptr %7, align 4, !tbaa !8
  %56 = icmp sgt i32 %55, 1
  br i1 %56, label %57, label %59, !prof !11

57:                                               ; preds = %54
  %58 = add nsw i32 %55, -1
  store i32 %58, ptr %7, align 4, !tbaa !8
  br label %lean_dec.exit

59:                                               ; preds = %54
  %.not.i21 = icmp eq i32 %55, 0
  br i1 %.not.i21, label %lean_dec.exit, label %60

60:                                               ; preds = %59
  tail call void @lean_dec_ref_cold(ptr noundef nonnull %7) #4
  br label %lean_dec.exit

lean_dec.exit:                                    ; preds = %60, %59, %57, %lean_inc.exit
  %61 = tail call ptr @l_Lean_Elab_Command_expandMacroArg_mkSyntaxAndPat(ptr noundef %16, ptr noundef %35, ptr noundef %45, ptr noundef %1, ptr noundef %2, ptr noundef %3)
  ret ptr %61
}